; Function Attrs: mustprogress uwtable
define void @cvCmp(ptr noundef %0, ptr noundef %1, ptr noundef %2, i32 noundef %3) local_unnamed_addr #0 personality ptr @__gxx_personality_v0 {
  %5 = alloca %"class.cv::Mat", align 8
  %6 = alloca %"class.cv::Mat", align 8
  %7 = alloca %"class.std::__cxx11::basic_string", align 8
  %8 = alloca %"class.std::allocator", align 1
  %9 = alloca %"class.cv::_InputArray", align 8
  %10 = alloca %"class.cv::_InputArray", align 8
  %11 = alloca %"class.cv::Mat", align 8
  %12 = alloca %"class.cv::_OutputArray", align 8
  call void @_ZN2cv10cvarrToMatEPKvbbiPNS_10AutoBufferIdLm136EEE(ptr dead_on_unwind nonnull writable sret(%"class.cv::Mat") align 8 %5, ptr noundef %0, i1 noundef zeroext false, i1 noundef zeroext true, i32 noundef 0, ptr noundef null)
  invoke void @_ZN2cv10cvarrToMatEPKvbbiPNS_10AutoBufferIdLm136EEE(ptr dead_on_unwind nonnull writable sret(%"class.cv::Mat") align 8 %6, ptr noundef %2, i1 noundef zeroext false, i1 noundef zeroext true, i32 noundef 0, ptr noundef null)
          to label %13 unwind label %21

13:                                               ; preds = %4
  %14 = getelementptr inbounds i8, ptr %5, i64 64
  %15 = getelementptr inbounds i8, ptr %6, i64 64
  %16 = call noundef zeroext i1 @_ZNK2cv7MatSizeeqERKS0_(ptr noundef nonnull align 8 dereferenceable(8) %14, ptr noundef nonnull align 8 dereferenceable(8) %15) #18
  br i1 %16, label %17, label %23

17:                                               ; preds = %13
  %18 = load i32, ptr %6, align 8
  %19 = and i32 %18, 4095
  %20 = icmp eq i32 %19, 0
  br i1 %20, label %31, label %23

21:                                               ; preds = %4
  %22 = landingpad { ptr, i32 }
          cleanup
  br label %47

23:                                               ; preds = %17, %13
  call void @_ZNSaIcEC1Ev(ptr noundef nonnull align 1 dereferenceable(1) %8) #18
  invoke void @_ZNSt7__cxx1112basic_stringIcSt11char_traitsIcESaIcEEC1EPKcRKS3_(ptr noundef nonnull align 8 dereferenceable(32) %7, ptr noundef nonnull @.str.37, ptr noundef nonnull align 1 dereferenceable(1) %8)
          to label %24 unwind label %26

24:                                               ; preds = %23
  invoke void @_ZN2cv5errorEiRKNSt7__cxx1112basic_stringIcSt11char_traitsIcESaIcEEEPKcS9_i(i32 noundef -215, ptr noundef nonnull align 8 dereferenceable(32) %7, ptr noundef nonnull @__func__.cvCmp, ptr noundef nonnull @.str.1, i32 noundef 2179) #19
          to label %25 unwind label %28

25:                                               ; preds = %24
  unreachable

26:                                               ; preds = %23
  %27 = landingpad { ptr, i32 }
          cleanup
  br label %30

28:                                               ; preds = %24
  %29 = landingpad { ptr, i32 }
          cleanup
  call void @_ZNSt7__cxx1112basic_stringIcSt11char_traitsIcESaIcEED1Ev(ptr noundef nonnull align 8 dereferenceable(32) %7) #18
  br label %30

30:                                               ; preds = %28, %26
  %.pn = phi { ptr, i32 } [ %29, %28 ], [ %27, %26 ]
  call void @_ZNSaIcED1Ev(ptr noundef nonnull align 1 dereferenceable(1) %8) #18
  br label %46

31:                                               ; preds = %17
  %32 = getelementptr inbounds i8, ptr %9, i64 16
  store i32 0, ptr %32, align 8
  %33 = getelementptr inbounds i8, ptr %9, i64 20
  store i32 0, ptr %33, align 4
  store i32 16842752, ptr %9, align 8
  %34 = getelementptr inbounds i8, ptr %9, i64 8
  store ptr %5, ptr %34, align 8
  invoke void @_ZN2cv10cvarrToMatEPKvbbiPNS_10AutoBufferIdLm136EEE(ptr dead_on_unwind nonnull writable sret(%"class.cv::Mat") align 8 %11, ptr noundef %1, i1 noundef zeroext false, i1 noundef zeroext true, i32 noundef 0, ptr noundef null)
          to label %35 unwind label %42

35:                                               ; preds = %31
  %36 = getelementptr inbounds i8, ptr %10, i64 16
  store i32 0, ptr %36, align 8
  %37 = getelementptr inbounds i8, ptr %10, i64 20
  store i32 0, ptr %37, align 4
  store i32 16842752, ptr %10, align 8
  %38 = getelementptr inbounds i8, ptr %10, i64 8
  store ptr %11, ptr %38, align 8
  %39 = getelementptr inbounds i8, ptr %12, i64 8
  %40 = getelementptr inbounds i8, ptr %12, i64 16
  store i64 0, ptr %40, align 8
  store i32 33619968, ptr %12, align 8
  store ptr %6, ptr %39, align 8
  invoke void @_ZN2cv7compareERKNS_11_InputArrayES2_RKNS_12_OutputArrayEi(ptr noundef nonnull align 8 dereferenceable(24) %9, ptr noundef nonnull align 8 dereferenceable(24) %10, ptr noundef nonnull align 8 dereferenceable(24) %12, i32 noundef %3)
          to label %41 unwind label %44

41:                                               ; preds = %35
  call void @_ZN2cv3MatD1Ev(ptr noundef nonnull align 8 dereferenceable(96) %11) #18
  call void @_ZN2cv3MatD1Ev(ptr noundef nonnull align 8 dereferenceable(96) %6) #18
  call void @_ZN2cv3MatD1Ev(ptr noundef nonnull align 8 dereferenceable(96) %5) #18
  ret void

42:                                               ; preds = %31
  %43 = landingpad { ptr, i32 }
          cleanup
  br label %46

44:                                               ; preds = %35
  %45 = landingpad { ptr, i32 }
          cleanup
  call void @_ZN2cv3MatD1Ev(ptr noundef nonnull align 8 dereferenceable(96) %11) #18
  br label %46

46:                                               ; preds = %42, %44, %30
  %.pn12.pn.pn.pn = phi { ptr, i32 } [ %.pn, %30 ], [ %45, %44 ], [ %43, %42 ]
  call void @_ZN2cv3MatD1Ev(ptr noundef nonnull align 8 dereferenceable(96) %6) #18
  br label %47

47:                                               ; preds = %46, %21
  %.pn12.pn.pn.pn.pn = phi { ptr, i32 } [ %.pn12.pn.pn.pn, %46 ], [ %22, %21 ]
  call void @_ZN2cv3MatD1Ev(ptr noundef nonnull align 8 dereferenceable(96) %5) #18
  resume { ptr, i32 } %.pn12.pn.pn.pn.pn
}